target datalayout = "e-m:e-p270:32:32-p271:32:32-p272:64:64-i64:64-i128:128-f80:128-n8:16:32:64-S128"
target triple = "x86_64-pc-linux-gnu"

%struct._zend_executor_globals = type { %struct._zval_struct, %struct._zval_struct, [32 x ptr], ptr, ptr, %struct._zend_array, %struct._zend_array, ptr, i32, i8, %struct._zval_struct, i32, ptr, ptr, ptr, ptr, ptr, ptr, i64, ptr, ptr, i32, ptr, i32, i64, i32, i32, i32, i8, i8, %struct.zend_atomic_bool_s, %struct.zend_atomic_bool_s, ptr, i64, ptr, ptr, %struct._zend_array, %struct._zend_array, i32, i8, %struct._zval_struct, %struct._zval_struct, %struct._zend_stack, %struct._zend_stack, %struct._zend_stack, ptr, i32, i32, i64, ptr, ptr, ptr, %struct._zend_objects_store, %struct._zend_lazy_objects_store, ptr, ptr, ptr, [3 x %struct._zend_op], ptr, i8, i8, i64, i32, i32, ptr, [16 x %struct._HashTableIterator], ptr, %union._zend_function, %struct._zend_op, %struct._zend_array, i64, %struct.zend_get_gc_buffer, ptr, ptr, ptr, i64, i8, i32, ptr, ptr, i64, %struct._zend_call_stack, i64, i64, %struct._zend_strtod_state, [6 x ptr] }
%struct.zend_atomic_bool_s = type { i8 }
%struct._zval_struct = type { %union._zend_value, %union.anon.0, %union.anon.3 }
%union._zend_value = type { i64 }
%union.anon.0 = type { i32 }
%union.anon.3 = type { i32 }
%struct._zend_stack = type { i32, i32, i32, ptr }
%struct._zend_objects_store = type { ptr, i32, i32, i32 }
%struct._zend_lazy_objects_store = type { %struct._zend_array }
%struct._HashTableIterator = type { ptr, i32, i32 }
%union._zend_function = type { %struct._zend_op_array }
%struct._zend_op_array = type { i8, [3 x i8], i32, ptr, ptr, ptr, i32, i32, ptr, ptr, ptr, ptr, i32, ptr, i32, i32, i32, ptr, ptr, ptr, ptr, ptr, i32, i32, ptr, ptr, ptr, i32, i32, i32, i32, ptr, ptr, [6 x ptr] }
%struct._zend_op = type { ptr, %union._znode_op, %union._znode_op, %union._znode_op, i32, i32, i8, i8, i8, i8 }
%union._znode_op = type { i32 }
%struct._zend_array = type { %struct._zend_refcounted_h, %union.anon.4, i32, %union.anon.6, i32, i32, i32, i32, i64, ptr }
%struct._zend_refcounted_h = type { i32, %union.anon }
%union.anon = type { i32 }
%union.anon.4 = type { i32 }
%union.anon.6 = type { ptr }
%struct.zend_get_gc_buffer = type { ptr, ptr, ptr }
%struct._zend_call_stack = type { ptr, i64 }
%struct._zend_strtod_state = type { [8 x ptr], ptr, ptr }
%struct.dom_xpath_object = type { %struct.php_dom_xpath_callbacks, i8, %struct._dom_object }
%struct.php_dom_xpath_callbacks = type { ptr, ptr, ptr }
%struct._dom_object = type { ptr, ptr, ptr, %struct._zend_object }
%struct._zend_object = type { %struct._zend_refcounted_h, i32, i32, ptr, ptr, ptr, [1 x %struct._zval_struct] }
%struct._zend_execute_data = type { ptr, ptr, ptr, ptr, %struct._zval_struct, ptr, ptr, ptr, ptr }
%struct._zend_class_entry = type { i8, ptr, %union.anon.8, i32, i32, i32, i32, ptr, ptr, ptr, %struct._zend_array, %struct._zend_array, %struct._zend_array, ptr, ptr, ptr, ptr, ptr, ptr, ptr, ptr, ptr, ptr, ptr, ptr, ptr, ptr, ptr, ptr, ptr, ptr, ptr, %union.anon.9, ptr, ptr, ptr, ptr, i32, i32, i32, i32, %union.anon.10, ptr, ptr, ptr, ptr, i32, ptr, ptr, %union.anon.11 }
%union.anon.8 = type { ptr }
%union.anon.9 = type { ptr }
%union.anon.10 = type { ptr }
%union.anon.11 = type { %struct.anon.12 }
%struct.anon.12 = type { ptr, i32, i32 }
%struct._zend_string = type { %struct._zend_refcounted_h, i64, i64, [1 x i8] }
%struct._php_libxml_node_ptr = type { ptr, i32, ptr }
%struct._xmlXPathContext = type { ptr, ptr, i32, i32, ptr, i32, i32, ptr, i32, i32, ptr, i32, i32, ptr, ptr, i32, ptr, i32, i32, i32, ptr, ptr, ptr, ptr, ptr, ptr, ptr, ptr, ptr, ptr, ptr, i32, ptr, ptr, %struct._xmlError, ptr, ptr, i32, ptr, i64, i64, i32 }
%struct._xmlError = type { i32, i32, ptr, i32, ptr, i32, ptr, ptr, ptr, i32, i32, ptr, ptr }

@executor_globals = external global %struct._zend_executor_globals, align 8
@.str.2 = private unnamed_addr constant [21 x i8] c"http://php.net/xpath\00", align 1
@.str.6 = private unnamed_addr constant [4 x i8] c"O|b\00", align 1
@.str.7 = private unnamed_addr constant [18 x i8] c"Couldn't fetch %s\00", align 1
@.str.8 = private unnamed_addr constant [15 x i8] c"functionString\00", align 1
@.str.9 = private unnamed_addr constant [9 x i8] c"function\00", align 1

; Function Attrs: inlinehint nounwind uwtable
define internal ptr @php_xpath_obj_from_obj(ptr noundef %0) #2 {
  %2 = alloca ptr, align 8
  store ptr %0, ptr %2, align 8, !tbaa !4
  %3 = load ptr, ptr %2, align 8, !tbaa !4
  %4 = getelementptr inbounds i8, ptr %3, i64 -32
  %5 = getelementptr inbounds i8, ptr %4, i64 -24
  ret ptr %5
}

; Function Attrs: inlinehint nounwind uwtable
define internal ptr @php_dom_obj_from_obj(ptr noundef %0) #2 {
  %2 = alloca ptr, align 8
  store ptr %0, ptr %2, align 8, !tbaa !4
  %3 = load ptr, ptr %2, align 8, !tbaa !4
  %4 = getelementptr inbounds i8, ptr %3, i64 -24
  ret ptr %4
}

; Function Attrs: nounwind uwtable
define internal void @dom_xpath_construct(ptr noundef %0, ptr noundef %1, ptr noundef %2) #0 {
  %4 = alloca ptr, align 8
  %5 = alloca ptr, align 8
  %6 = alloca ptr, align 8
  %7 = alloca ptr, align 8
  %8 = alloca i8, align 1
  %9 = alloca ptr, align 8
  %10 = alloca ptr, align 8
  %11 = alloca i32, align 4
  %12 = alloca ptr, align 8
  %13 = alloca ptr, align 8
  %14 = alloca ptr, align 8
  store ptr %0, ptr %4, align 8, !tbaa !27
  store ptr %1, ptr %5, align 8, !tbaa !29
  store ptr %2, ptr %6, align 8, !tbaa !31
  call void @llvm.lifetime.start.p0(i64 8, ptr %7) #13
  call void @llvm.lifetime.start.p0(i64 1, ptr %8) #13
  store i8 1, ptr %8, align 1, !tbaa !32
  call void @llvm.lifetime.start.p0(i64 8, ptr %9) #13
  store ptr null, ptr %9, align 8, !tbaa !33
  call void @llvm.lifetime.start.p0(i64 8, ptr %10) #13
  %15 = load ptr, ptr %4, align 8, !tbaa !27
  %16 = getelementptr inbounds nuw %struct._zend_execute_data, ptr %15, i32 0, i32 4
  %17 = getelementptr inbounds nuw %struct._zval_struct, ptr %16, i32 0, i32 2
  %18 = load i32, ptr %17, align 4, !tbaa !35
  %19 = load ptr, ptr %6, align 8, !tbaa !31
  %20 = call i32 (i32, ptr, ...) @zend_parse_parameters(i32 noundef %18, ptr noundef @.str.6, ptr noundef %7, ptr noundef %19, ptr noundef %8)
  %21 = icmp ne i32 %20, 0
  br i1 %21, label %22, label %28

22:                                               ; preds = %3
  br label %23

23:                                               ; preds = %22
  %24 = load ptr, ptr getelementptr inbounds nuw (%struct._zend_executor_globals, ptr @executor_globals, i32 0, i32 54), align 8, !tbaa !36
  %25 = icmp ne ptr %24, null
  call void @llvm.assume(i1 %25)
  store i32 1, ptr %11, align 4
  br label %122

26:                                               ; No predecessors!
  br label %27

27:                                               ; preds = %26
  br label %28

28:                                               ; preds = %27, %3
  %29 = load ptr, ptr %7, align 8, !tbaa !29
  %30 = getelementptr inbounds nuw %struct._zval_struct, ptr %29, i32 0, i32 0
  %31 = load ptr, ptr %30, align 8, !tbaa !35
  %32 = call ptr @php_dom_obj_from_obj(ptr noundef %31)
  store ptr %32, ptr %10, align 8, !tbaa !63
  %33 = load ptr, ptr %10, align 8, !tbaa !63
  %34 = getelementptr inbounds nuw %struct._dom_object, ptr %33, i32 0, i32 0
  %35 = load ptr, ptr %34, align 8, !tbaa !65
  %36 = icmp eq ptr %35, null
  %37 = xor i1 %36, true
  %38 = xor i1 %37, true
  %39 = zext i1 %38 to i32
  %40 = sext i32 %39 to i64
  %41 = call i64 @llvm.expect.i64(i64 %40, i64 0)
  %42 = icmp ne i64 %41, 0
  br i1 %42, label %43, label %57

43:                                               ; preds = %28
  %44 = load ptr, ptr %10, align 8, !tbaa !63
  %45 = getelementptr inbounds nuw %struct._dom_object, ptr %44, i32 0, i32 3
  %46 = getelementptr inbounds nuw %struct._zend_object, ptr %45, i32 0, i32 3
  %47 = load ptr, ptr %46, align 8, !tbaa !66
  %48 = getelementptr inbounds nuw %struct._zend_class_entry, ptr %47, i32 0, i32 1
  %49 = load ptr, ptr %48, align 8, !tbaa !67
  %50 = getelementptr inbounds nuw %struct._zend_string, ptr %49, i32 0, i32 3
  %51 = getelementptr inbounds [1 x i8], ptr %50, i64 0, i64 0
  call void (ptr, ptr, ...) @zend_throw_error(ptr noundef null, ptr noundef @.str.7, ptr noundef %51)
  br label %52

52:                                               ; preds = %43
  %53 = load ptr, ptr getelementptr inbounds nuw (%struct._zend_executor_globals, ptr @executor_globals, i32 0, i32 54), align 8, !tbaa !36
  %54 = icmp ne ptr %53, null
  call void @llvm.assume(i1 %54)
  store i32 1, ptr %11, align 4
  br label %122

55:                                               ; No predecessors!
  br label %56

56:                                               ; preds = %55
  br label %57

57:                                               ; preds = %56, %28
  %58 = load ptr, ptr %10, align 8, !tbaa !63
  %59 = getelementptr inbounds nuw %struct._dom_object, ptr %58, i32 0, i32 0
  %60 = load ptr, ptr %59, align 8, !tbaa !65
  %61 = getelementptr inbounds nuw %struct._php_libxml_node_ptr, ptr %60, i32 0, i32 0
  %62 = load ptr, ptr %61, align 8, !tbaa !78
  store ptr %62, ptr %9, align 8, !tbaa !33
  call void @llvm.lifetime.start.p0(i64 8, ptr %12) #13
  %63 = load ptr, ptr %9, align 8, !tbaa !33
  %64 = call ptr @xmlXPathNewContext(ptr noundef %63)
  store ptr %64, ptr %12, align 8, !tbaa !81
  %65 = load ptr, ptr %12, align 8, !tbaa !81
  %66 = icmp eq ptr %65, null
  br i1 %66, label %67, label %73

67:                                               ; preds = %57
  call void @php_dom_throw_error(i32 noundef 11, i1 noundef zeroext true)
  br label %68

68:                                               ; preds = %67
  %69 = load ptr, ptr getelementptr inbounds nuw (%struct._zend_executor_globals, ptr @executor_globals, i32 0, i32 54), align 8, !tbaa !36
  %70 = icmp ne ptr %69, null
  call void @llvm.assume(i1 %70)
  store i32 1, ptr %11, align 4
  br label %121

71:                                               ; No predecessors!
  br label %72

72:                                               ; preds = %71
  br label %73

73:                                               ; preds = %72, %57
  call void @llvm.lifetime.start.p0(i64 8, ptr %13) #13
  %74 = load ptr, ptr %4, align 8, !tbaa !27
  %75 = getelementptr inbounds nuw %struct._zend_execute_data, ptr %74, i32 0, i32 4
  %76 = getelementptr inbounds nuw %struct._zval_struct, ptr %75, i32 0, i32 0
  %77 = load ptr, ptr %76, align 8, !tbaa !35
  %78 = call ptr @php_xpath_obj_from_obj(ptr noundef %77)
  store ptr %78, ptr %13, align 8, !tbaa !9
  call void @llvm.lifetime.start.p0(i64 8, ptr %14) #13
  %79 = load ptr, ptr %13, align 8, !tbaa !9
  %80 = getelementptr inbounds nuw %struct.dom_xpath_object, ptr %79, i32 0, i32 2
  %81 = getelementptr inbounds nuw %struct._dom_object, ptr %80, i32 0, i32 0
  %82 = load ptr, ptr %81, align 8, !tbaa !11
  store ptr %82, ptr %14, align 8, !tbaa !81
  %83 = load ptr, ptr %14, align 8, !tbaa !81
  %84 = icmp ne ptr %83, null
  br i1 %84, label %85, label %94

85:                                               ; preds = %73
  %86 = load ptr, ptr %13, align 8, !tbaa !9
  %87 = getelementptr inbounds nuw %struct.dom_xpath_object, ptr %86, i32 0, i32 2
  %88 = call i32 @php_libxml_decrement_doc_ref(ptr noundef %87)
  %89 = load ptr, ptr %14, align 8, !tbaa !81
  call void @xmlXPathFreeContext(ptr noundef %89)
  %90 = load ptr, ptr %13, align 8, !tbaa !9
  %91 = getelementptr inbounds nuw %struct.dom_xpath_object, ptr %90, i32 0, i32 0
  call void @php_dom_xpath_callbacks_dtor(ptr noundef %91)
  %92 = load ptr, ptr %13, align 8, !tbaa !9
  %93 = getelementptr inbounds nuw %struct.dom_xpath_object, ptr %92, i32 0, i32 0
  call void @php_dom_xpath_callbacks_ctor(ptr noundef %93)
  br label %94

94:                                               ; preds = %85, %73
  %95 = load ptr, ptr %12, align 8, !tbaa !81
  %96 = call i32 @xmlXPathRegisterFuncNS(ptr noundef %95, ptr noundef @.str.8, ptr noundef @.str.2, ptr noundef @dom_xpath_ext_function_string_php)
  %97 = load ptr, ptr %12, align 8, !tbaa !81
  %98 = call i32 @xmlXPathRegisterFuncNS(ptr noundef %97, ptr noundef @.str.9, ptr noundef @.str.2, ptr noundef @dom_xpath_ext_function_object_php)
  %99 = load ptr, ptr %12, align 8, !tbaa !81
  %100 = load ptr, ptr %13, align 8, !tbaa !9
  %101 = getelementptr inbounds nuw %struct.dom_xpath_object, ptr %100, i32 0, i32 2
  %102 = getelementptr inbounds nuw %struct._dom_object, ptr %101, i32 0, i32 0
  store ptr %99, ptr %102, align 8, !tbaa !11
  %103 = load ptr, ptr %13, align 8, !tbaa !9
  %104 = load ptr, ptr %12, align 8, !tbaa !81
  %105 = getelementptr inbounds nuw %struct._xmlXPathContext, ptr %104, i32 0, i32 32
  store ptr %103, ptr %105, align 8, !tbaa !83
  %106 = load ptr, ptr %10, align 8, !tbaa !63
  %107 = getelementptr inbounds nuw %struct._dom_object, ptr %106, i32 0, i32 1
  %108 = load ptr, ptr %107, align 8, !tbaa !91
  %109 = load ptr, ptr %13, align 8, !tbaa !9
  %110 = getelementptr inbounds nuw %struct.dom_xpath_object, ptr %109, i32 0, i32 2
  %111 = getelementptr inbounds nuw %struct._dom_object, ptr %110, i32 0, i32 1
  store ptr %108, ptr %111, align 8, !tbaa !92
  %112 = load i8, ptr %8, align 1, !tbaa !32, !range !93, !noundef !94
  %113 = trunc i8 %112 to i1
  %114 = load ptr, ptr %13, align 8, !tbaa !9
  %115 = getelementptr inbounds nuw %struct.dom_xpath_object, ptr %114, i32 0, i32 1
  %116 = zext i1 %113 to i8
  store i8 %116, ptr %115, align 8, !tbaa !95
  %117 = load ptr, ptr %13, align 8, !tbaa !9
  %118 = getelementptr inbounds nuw %struct.dom_xpath_object, ptr %117, i32 0, i32 2
  %119 = load ptr, ptr %9, align 8, !tbaa !33
  %120 = call i32 @php_libxml_increment_doc_ref(ptr noundef %118, ptr noundef %119)
  call void @llvm.lifetime.end.p0(i64 8, ptr %14) #13
  call void @llvm.lifetime.end.p0(i64 8, ptr %13) #13
  store i32 0, ptr %11, align 4
  br label %121

121:                                              ; preds = %94, %68
  call void @llvm.lifetime.end.p0(i64 8, ptr %12) #13
  br label %122

122:                                              ; preds = %121, %52, %23
  call void @llvm.lifetime.end.p0(i64 8, ptr %10) #13
  call void @llvm.lifetime.end.p0(i64 8, ptr %9) #13
  call void @llvm.lifetime.end.p0(i64 1, ptr %8) #13
  call void @llvm.lifetime.end.p0(i64 8, ptr %7) #13
  %123 = load i32, ptr %11, align 4
  switch i32 %123, label %125 [
    i32 0, label %124
    i32 1, label %124
  ]

124:                                              ; preds = %122, %122
  ret void

125:                                              ; preds = %122
  unreachable
}