; Function Attrs: nounwind uwtable
define internal fastcc void @dom_xpath_construct(ptr noundef readonly captures(none) %0, ptr noundef %1) unnamed_addr #0 {
  %3 = alloca ptr, align 8
  %4 = alloca i8, align 1
  call void @llvm.lifetime.start.p0(i64 8, ptr nonnull %3) #12
  call void @llvm.lifetime.start.p0(i64 1, ptr nonnull %4) #12
  store i8 1, ptr %4, align 1, !tbaa !20
  %5 = getelementptr inbounds nuw i8, ptr %0, i64 32
  %6 = getelementptr inbounds nuw i8, ptr %0, i64 44
  %7 = load i32, ptr %6, align 4, !tbaa !21
  %8 = call i32 (i32, ptr, ...) @zend_parse_parameters(i32 noundef %7, ptr noundef nonnull @.str.6, ptr noundef nonnull %3, ptr noundef %1, ptr noundef nonnull %4) #12
  %.not = icmp eq i32 %8, 0
  br i1 %.not, label %12, label %9

9:                                                ; preds = %2
  %10 = load ptr, ptr getelementptr inbounds nuw (i8, ptr @executor_globals, i64 960), align 8, !tbaa !22
  %11 = icmp ne ptr %10, null
  call void @llvm.assume(i1 %11)
  br label %50

12:                                               ; preds = %2
  %13 = load ptr, ptr %3, align 8, !tbaa !52
  %14 = load ptr, ptr %13, align 8, !tbaa !21
  %15 = getelementptr inbounds i8, ptr %14, i64 -24
  %16 = load ptr, ptr %15, align 8, !tbaa !53
  %17 = icmp eq ptr %16, null
  br i1 %17, label %18, label %26, !prof !54

18:                                               ; preds = %12
  %19 = getelementptr inbounds nuw i8, ptr %14, i64 16
  %20 = load ptr, ptr %19, align 8, !tbaa !55
  %21 = getelementptr inbounds nuw i8, ptr %20, i64 8
  %22 = load ptr, ptr %21, align 8, !tbaa !56
  %23 = getelementptr inbounds nuw i8, ptr %22, i64 24
  call void (ptr, ptr, ...) @zend_throw_error(ptr noundef null, ptr noundef nonnull @.str.7, ptr noundef nonnull %23) #12
  %24 = load ptr, ptr getelementptr inbounds nuw (i8, ptr @executor_globals, i64 960), align 8, !tbaa !22
  %25 = icmp ne ptr %24, null
  call void @llvm.assume(i1 %25)
  br label %50

26:                                               ; preds = %12
  %27 = load ptr, ptr %16, align 8, !tbaa !67
  %28 = call ptr @xmlXPathNewContext(ptr noundef %27) #12
  %29 = icmp eq ptr %28, null
  br i1 %29, label %30, label %33

30:                                               ; preds = %26
  call void @php_dom_throw_error(i32 noundef 11, i1 noundef zeroext true) #12
  %31 = load ptr, ptr getelementptr inbounds nuw (i8, ptr @executor_globals, i64 960), align 8, !tbaa !22
  %32 = icmp ne ptr %31, null
  call void @llvm.assume(i1 %32)
  br label %50

33:                                               ; preds = %26
  %34 = load ptr, ptr %5, align 8, !tbaa !21
  %35 = getelementptr inbounds i8, ptr %34, i64 -56
  %36 = getelementptr inbounds i8, ptr %34, i64 -24
  %37 = load ptr, ptr %36, align 8, !tbaa !4
  %.not27 = icmp eq ptr %37, null
  br i1 %.not27, label %40, label %38

38:                                               ; preds = %33
  %39 = call i32 @php_libxml_decrement_doc_ref(ptr noundef nonnull %36) #12
  call void @xmlXPathFreeContext(ptr noundef nonnull %37) #12
  call void @php_dom_xpath_callbacks_dtor(ptr noundef nonnull %35) #12
  call void @php_dom_xpath_callbacks_ctor(ptr noundef nonnull %35) #12
  br label %40

40:                                               ; preds = %38, %33
  %41 = call i32 @xmlXPathRegisterFuncNS(ptr noundef nonnull %28, ptr noundef nonnull @.str.8, ptr noundef nonnull @.str.2, ptr noundef nonnull @dom_xpath_ext_function_string_php) #12
  %42 = call i32 @xmlXPathRegisterFuncNS(ptr noundef nonnull %28, ptr noundef nonnull @.str.9, ptr noundef nonnull @.str.2, ptr noundef nonnull @dom_xpath_ext_function_object_php) #12
  store ptr %28, ptr %36, align 8, !tbaa !4
  %43 = getelementptr inbounds nuw i8, ptr %28, i64 216
  store ptr %35, ptr %43, align 8, !tbaa !70
  %44 = getelementptr inbounds i8, ptr %14, i64 -16
  %45 = load ptr, ptr %44, align 8, !tbaa !79
  %46 = getelementptr inbounds i8, ptr %34, i64 -16
  store ptr %45, ptr %46, align 8, !tbaa !80
  %47 = load i8, ptr %4, align 1, !tbaa !20, !range !81, !noundef !82
  %48 = getelementptr inbounds i8, ptr %34, i64 -32
  store i8 %47, ptr %48, align 8, !tbaa !83
  %49 = call i32 @php_libxml_increment_doc_ref(ptr noundef nonnull %36, ptr noundef %27) #12
  br label %50

50:                                               ; preds = %30, %40, %18, %9
  call void @llvm.lifetime.end.p0(i64 1, ptr nonnull %4) #12
  call void @llvm.lifetime.end.p0(i64 8, ptr nonnull %3) #12
  ret void
}